; Function Attrs: mustprogress uwtable
define void @_ZNK10open_spiel3nim8NimState8ToStringB5cxx11Ev(ptr dead_on_unwind noalias nonnull writable sret(%"class.std::__cxx11::basic_string") align 8 %0, ptr noundef nonnull readonly align 8 captures(none) dereferenceable(108) %1) unnamed_addr #3 align 2 personality ptr @__gxx_personality_v0 {
  %3 = alloca %"class.absl::debian2::AlphaNum", align 8
  %4 = alloca %"class.absl::debian2::AlphaNum", align 8
  %5 = alloca %"class.absl::debian2::AlphaNum", align 8
  %6 = alloca %"class.absl::debian2::AlphaNum", align 8
  %7 = alloca %"class.absl::debian2::AlphaNum", align 8
  tail call void @_ZNSt7__cxx1112basic_stringIcSt11char_traitsIcESaIcEEC1Ev(ptr noundef nonnull align 8 dereferenceable(32) %0) #27
  store ptr @.str.25, ptr %3, align 8
  %8 = getelementptr inbounds nuw i8, ptr %3, i64 8
  store i64 1, ptr %8, align 8
  %9 = getelementptr inbounds nuw i8, ptr %1, i64 88
  %10 = load i32, ptr %9, align 8
  %11 = getelementptr inbounds nuw i8, ptr %4, i64 16
  %12 = invoke noundef ptr @_ZN4absl7debian216numbers_internal15FastIntToBufferEiPc(i32 noundef %10, ptr noundef nonnull %11)
          to label %.noexc unwind label %.loopexit.split-lp

.noexc:                                           ; preds = %2
  %13 = ptrtoint ptr %12 to i64
  %14 = ptrtoint ptr %11 to i64
  %15 = sub i64 %13, %14
  store ptr %11, ptr %4, align 8
  %16 = icmp sgt i64 %15, -1
  br i1 %16, label %18, label %17

17:                                               ; preds = %.noexc
  call void @llvm.trap()
  unreachable

18:                                               ; preds = %.noexc
  %19 = getelementptr inbounds nuw i8, ptr %4, i64 8
  store i64 %15, ptr %19, align 8
  store ptr @.str.26, ptr %5, align 8
  %20 = getelementptr inbounds nuw i8, ptr %5, i64 8
  store i64 3, ptr %20, align 8
  invoke void @_ZN4absl7debian29StrAppendEPNSt7__cxx1112basic_stringIcSt11char_traitsIcESaIcEEERKNS0_8AlphaNumESA_SA_(ptr noundef nonnull %0, ptr noundef nonnull align 8 dereferenceable(48) %3, ptr noundef nonnull align 8 dereferenceable(48) %4, ptr noundef nonnull align 8 dereferenceable(48) %5)
          to label %.preheader unwind label %.loopexit.split-lp

.preheader:                                       ; preds = %18
  %21 = getelementptr inbounds nuw i8, ptr %1, i64 64
  %22 = getelementptr inbounds nuw i8, ptr %1, i64 72
  %23 = load ptr, ptr %22, align 8
  %24 = load ptr, ptr %21, align 8
  %.not12 = icmp eq ptr %23, %24
  br i1 %.not12, label %._crit_edge, label %.lr.ph

.lr.ph:                                           ; preds = %.preheader
  %25 = getelementptr inbounds nuw i8, ptr %6, i64 16
  %26 = ptrtoint ptr %25 to i64
  %27 = getelementptr inbounds nuw i8, ptr %6, i64 8
  %28 = getelementptr inbounds nuw i8, ptr %7, i64 8
  br label %29

29:                                               ; preds = %.lr.ph, %49
  %30 = phi ptr [ %24, %.lr.ph ], [ %50, %49 ]
  %.011 = phi i64 [ 0, %.lr.ph ], [ %51, %49 ]
  %31 = getelementptr inbounds i32, ptr %30, i64 %.011
  %32 = load i32, ptr %31, align 4
  %33 = invoke noundef ptr @_ZN4absl7debian216numbers_internal15FastIntToBufferEiPc(i32 noundef %32, ptr noundef nonnull %25)
          to label %.noexc8 unwind label %.loopexit

.noexc8:                                          ; preds = %29
  %34 = ptrtoint ptr %33 to i64
  %35 = sub i64 %34, %26
  store ptr %25, ptr %6, align 8
  %36 = icmp sgt i64 %35, -1
  br i1 %36, label %38, label %37

37:                                               ; preds = %.noexc8
  call void @llvm.trap()
  unreachable

38:                                               ; preds = %.noexc8
  store i64 %35, ptr %27, align 8
  invoke void @_ZN4absl7debian29StrAppendEPNSt7__cxx1112basic_stringIcSt11char_traitsIcESaIcEEERKNS0_8AlphaNumE(ptr noundef nonnull %0, ptr noundef nonnull align 8 dereferenceable(48) %6)
          to label %39 unwind label %.loopexit

39:                                               ; preds = %38
  %40 = load ptr, ptr %22, align 8
  %41 = load ptr, ptr %21, align 8
  %42 = ptrtoint ptr %40 to i64
  %43 = ptrtoint ptr %41 to i64
  %44 = sub i64 %42, %43
  %45 = ashr exact i64 %44, 2
  %46 = add nsw i64 %45, -1
  %.not = icmp eq i64 %.011, %46
  br i1 %.not, label %49, label %47

47:                                               ; preds = %39
  store ptr @.str.12, ptr %7, align 8
  store i64 1, ptr %28, align 8
  invoke void @_ZN4absl7debian29StrAppendEPNSt7__cxx1112basic_stringIcSt11char_traitsIcESaIcEEERKNS0_8AlphaNumE(ptr noundef nonnull %0, ptr noundef nonnull align 8 dereferenceable(48) %7)
          to label %._crit_edge13 unwind label %.loopexit

._crit_edge13:                                    ; preds = %47
  %.pre = load ptr, ptr %22, align 8
  %.pre14 = load ptr, ptr %21, align 8
  %.pre15 = ptrtoint ptr %.pre to i64
  %.pre16 = ptrtoint ptr %.pre14 to i64
  %.pre18 = sub i64 %.pre15, %.pre16
  %.pre20 = ashr exact i64 %.pre18, 2
  br label %49

.loopexit:                                        ; preds = %38, %47, %29
  %lpad.loopexit = landingpad { ptr, i32 }
          cleanup
  br label %48

.loopexit.split-lp:                               ; preds = %18, %2
  %lpad.loopexit.split-lp = landingpad { ptr, i32 }
          cleanup
  br label %48

48:                                               ; preds = %.loopexit.split-lp, %.loopexit
  %lpad.phi = phi { ptr, i32 } [ %lpad.loopexit, %.loopexit ], [ %lpad.loopexit.split-lp, %.loopexit.split-lp ]
  call void @_ZNSt7__cxx1112basic_stringIcSt11char_traitsIcESaIcEED1Ev(ptr noundef nonnull align 8 dereferenceable(32) %0) #27
  resume { ptr, i32 } %lpad.phi

49:                                               ; preds = %._crit_edge13, %39
  %.pre-phi21 = phi i64 [ %.pre20, %._crit_edge13 ], [ %45, %39 ]
  %50 = phi ptr [ %.pre14, %._crit_edge13 ], [ %41, %39 ]
  %51 = add nuw i64 %.011, 1
  %52 = icmp ult i64 %51, %.pre-phi21
  br i1 %52, label %29, label %._crit_edge, !llvm.loop !26

._crit_edge:                                      ; preds = %49, %.preheader
  ret void
}